target datalayout = "e-m:e-p270:32:32-p271:32:32-p272:64:64-i64:64-i128:128-f80:128-n8:16:32:64-S128"
target triple = "x86_64-pc-linux-gnu"

%class.VerificationType = type { %union.anon }
%union.anon = type { ptr }

@g_assert_poison = external global ptr, align 8
@.str = private unnamed_addr constant [49 x i8] c"src/hotspot/share/classfile/verificationType.cpp\00", align 1

; Function Attrs: mustprogress nounwind uwtable
define linkonce_odr hidden void @_ZN16VerificationTypeC2Em(ptr noundef nonnull align 8 dereferenceable(8) %0, i64 noundef %1) unnamed_addr #1 comdat align 2 {
  %3 = alloca ptr, align 8
  %4 = alloca i64, align 8
  store ptr %0, ptr %3, align 8
  store i64 %1, ptr %4, align 8
  %5 = load ptr, ptr %3, align 8
  %6 = load i64, ptr %4, align 8
  %7 = getelementptr inbounds %class.VerificationType, ptr %5, i32 0, i32 0
  store i64 %6, ptr %7, align 8
  ret void
}

; Function Attrs: mustprogress nounwind uwtable
define linkonce_odr hidden ptr @_ZN16VerificationType9null_typeEv() #1 comdat align 2 {
  %1 = alloca %class.VerificationType, align 8
  call void @_ZN16VerificationTypeC2Em(ptr noundef nonnull align 8 dereferenceable(8) %1, i64 noundef 0)
  %2 = getelementptr inbounds %class.VerificationType, ptr %1, i32 0, i32 0
  %3 = getelementptr inbounds %union.anon, ptr %2, i32 0, i32 0
  %4 = load ptr, ptr %3, align 8
  ret ptr %4
}

; Function Attrs: mustprogress nounwind uwtable
define linkonce_odr hidden ptr @_ZN16VerificationType9long_typeEv() #1 comdat align 2 {
  %1 = alloca %class.VerificationType, align 8
  call void @_ZN16VerificationTypeC2Em(ptr noundef nonnull align 8 dereferenceable(8) %1, i64 noundef 262657)
  %2 = getelementptr inbounds %class.VerificationType, ptr %1, i32 0, i32 0
  %3 = getelementptr inbounds %union.anon, ptr %2, i32 0, i32 0
  %4 = load ptr, ptr %3, align 8
  ret ptr %4
}

; Function Attrs: mustprogress nounwind uwtable
define linkonce_odr hidden ptr @_ZN16VerificationType11double_typeEv() #1 comdat align 2 {
  %1 = alloca %class.VerificationType, align 8
  call void @_ZN16VerificationTypeC2Em(ptr noundef nonnull align 8 dereferenceable(8) %1, i64 noundef 197121)
  %2 = getelementptr inbounds %class.VerificationType, ptr %1, i32 0, i32 0
  %3 = getelementptr inbounds %union.anon, ptr %2, i32 0, i32 0
  %4 = load ptr, ptr %3, align 8
  ret ptr %4
}

; Function Attrs: mustprogress nounwind uwtable
define linkonce_odr hidden ptr @_ZN16VerificationType10float_typeEv() #1 comdat align 2 {
  %1 = alloca %class.VerificationType, align 8
  call void @_ZN16VerificationTypeC2Em(ptr noundef nonnull align 8 dereferenceable(8) %1, i64 noundef 131329)
  %2 = getelementptr inbounds %class.VerificationType, ptr %1, i32 0, i32 0
  %3 = getelementptr inbounds %union.anon, ptr %2, i32 0, i32 0
  %4 = load ptr, ptr %3, align 8
  ret ptr %4
}

; Function Attrs: mustprogress nounwind uwtable
define linkonce_odr hidden ptr @_ZN16VerificationType12integer_typeEv() #1 comdat align 2 {
  %1 = alloca %class.VerificationType, align 8
  call void @_ZN16VerificationTypeC2Em(ptr noundef nonnull align 8 dereferenceable(8) %1, i64 noundef 65793)
  %2 = getelementptr inbounds %class.VerificationType, ptr %1, i32 0, i32 0
  %3 = getelementptr inbounds %union.anon, ptr %2, i32 0, i32 0
  %4 = load ptr, ptr %3, align 8
  ret ptr %4
}

; Function Attrs: mustprogress nounwind uwtable
define linkonce_odr hidden ptr @_ZN16VerificationType10bogus_typeEv() #1 comdat align 2 {
  %1 = alloca %class.VerificationType, align 8
  call void @_ZN16VerificationTypeC2Em(ptr noundef nonnull align 8 dereferenceable(8) %1, i64 noundef 4294901761)
  %2 = getelementptr inbounds %class.VerificationType, ptr %1, i32 0, i32 0
  %3 = getelementptr inbounds %union.anon, ptr %2, i32 0, i32 0
  %4 = load ptr, ptr %3, align 8
  ret ptr %4
}

; Function Attrs: mustprogress nounwind uwtable
define hidden ptr @_ZN16VerificationType8from_tagEh(i8 noundef zeroext %0) #1 align 2 {
  %2 = alloca %class.VerificationType, align 8
  %3 = alloca i8, align 1
  store i8 %0, ptr %3, align 1
  %4 = load i8, ptr %3, align 1
  %5 = zext i8 %4 to i32
  switch i32 %5, label %30 [
    i32 0, label %6
    i32 1, label %10
    i32 2, label %14
    i32 3, label %18
    i32 4, label %22
    i32 5, label %26
  ]

6:                                                ; preds = %1
  %7 = call ptr @_ZN16VerificationType10bogus_typeEv()
  %8 = getelementptr inbounds %class.VerificationType, ptr %2, i32 0, i32 0
  %9 = getelementptr inbounds %union.anon, ptr %8, i32 0, i32 0
  store ptr %7, ptr %9, align 8
  br label %37

10:                                               ; preds = %1
  %11 = call ptr @_ZN16VerificationType12integer_typeEv()
  %12 = getelementptr inbounds %class.VerificationType, ptr %2, i32 0, i32 0
  %13 = getelementptr inbounds %union.anon, ptr %12, i32 0, i32 0
  store ptr %11, ptr %13, align 8
  br label %37

14:                                               ; preds = %1
  %15 = call ptr @_ZN16VerificationType10float_typeEv()
  %16 = getelementptr inbounds %class.VerificationType, ptr %2, i32 0, i32 0
  %17 = getelementptr inbounds %union.anon, ptr %16, i32 0, i32 0
  store ptr %15, ptr %17, align 8
  br label %37

18:                                               ; preds = %1
  %19 = call ptr @_ZN16VerificationType11double_typeEv()
  %20 = getelementptr inbounds %class.VerificationType, ptr %2, i32 0, i32 0
  %21 = getelementptr inbounds %union.anon, ptr %20, i32 0, i32 0
  store ptr %19, ptr %21, align 8
  br label %37

22:                                               ; preds = %1
  %23 = call ptr @_ZN16VerificationType9long_typeEv()
  %24 = getelementptr inbounds %class.VerificationType, ptr %2, i32 0, i32 0
  %25 = getelementptr inbounds %union.anon, ptr %24, i32 0, i32 0
  store ptr %23, ptr %25, align 8
  br label %37

26:                                               ; preds = %1
  %27 = call ptr @_ZN16VerificationType9null_typeEv()
  %28 = getelementptr inbounds %class.VerificationType, ptr %2, i32 0, i32 0
  %29 = getelementptr inbounds %union.anon, ptr %28, i32 0, i32 0
  store ptr %27, ptr %29, align 8
  br label %37

30:                                               ; preds = %1
  br label %31

31:                                               ; preds = %30
  %32 = load ptr, ptr @g_assert_poison, align 8
  store i8 88, ptr %32, align 1
  call void @_Z28report_should_not_reach_herePKci(ptr noundef @.str, i32 noundef 47) #7
  unreachable

33:                                               ; No predecessors!
  %34 = call ptr @_ZN16VerificationType10bogus_typeEv()
  %35 = getelementptr inbounds %class.VerificationType, ptr %2, i32 0, i32 0
  %36 = getelementptr inbounds %union.anon, ptr %35, i32 0, i32 0
  store ptr %34, ptr %36, align 8
  br label %37

37:                                               ; preds = %33, %26, %22, %18, %14, %10, %6
  %38 = getelementptr inbounds %class.VerificationType, ptr %2, i32 0, i32 0
  %39 = getelementptr inbounds %union.anon, ptr %38, i32 0, i32 0
  %40 = load ptr, ptr %39, align 8
  ret ptr %40
}