; Function Attrs: mustprogress nounwind uwtable
define hidden noundef ptr @_ZN16VerificationType8from_tagEh(i8 noundef zeroext %0) local_unnamed_addr #0 align 2 {
  switch i8 %0, label %7 [
    i8 0, label %9
    i8 1, label %2
    i8 2, label %3
    i8 3, label %4
    i8 4, label %5
    i8 5, label %6
  ]

2:                                                ; preds = %1
  br label %9

3:                                                ; preds = %1
  br label %9

4:                                                ; preds = %1
  br label %9

5:                                                ; preds = %1
  br label %9

6:                                                ; preds = %1
  br label %9

7:                                                ; preds = %1
  %8 = load ptr, ptr @g_assert_poison, align 8
  store i8 88, ptr %8, align 1
  tail call void @_Z28report_should_not_reach_herePKci(ptr noundef nonnull @.str, i32 noundef 47) #8
  unreachable

9:                                                ; preds = %1, %6, %5, %4, %3, %2
  %.sroa.0.0 = phi ptr [ null, %6 ], [ inttoptr (i64 262657 to ptr), %5 ], [ inttoptr (i64 197121 to ptr), %4 ], [ inttoptr (i64 131329 to ptr), %3 ], [ inttoptr (i64 65793 to ptr), %2 ], [ inttoptr (i64 4294901761 to ptr), %1 ]
  ret ptr %.sroa.0.0
}